
_interrupt:
	MOVWF      R15+0
	SWAPF      STATUS+0, 0
	CLRF       STATUS+0
	MOVWF      ___saveSTATUS+0
	MOVF       PCLATH+0, 0
	MOVWF      ___savePCLATH+0
	CLRF       PCLATH+0

;Alzheimer.c,29 :: 		void interrupt(){
;Alzheimer.c,30 :: 		INTCON.INTF=0;
	BCF        INTCON+0, 1
;Alzheimer.c,31 :: 		for(i = 0; i < 6; i++){
	CLRF       _i+0
	CLRF       _i+1
L_interrupt0:
	MOVLW      128
	XORWF      _i+1, 0
	MOVWF      R0+0
	MOVLW      128
	SUBWF      R0+0, 0
	BTFSS      STATUS+0, 2
	GOTO       L__interrupt32
	MOVLW      6
	SUBWF      _i+0, 0
L__interrupt32:
	BTFSC      STATUS+0, 0
	GOTO       L_interrupt1
;Alzheimer.c,32 :: 		PORTC.RC0 =~ PORTC.RC0;
	MOVLW      1
	XORWF      PORTC+0, 1
;Alzheimer.c,33 :: 		Delay_ms(500);
	MOVLW      163
	MOVWF      R12+0
	MOVLW      85
	MOVWF      R13+0
L_interrupt3:
	DECFSZ     R13+0, 1
	GOTO       L_interrupt3
	DECFSZ     R12+0, 1
	GOTO       L_interrupt3
;Alzheimer.c,31 :: 		for(i = 0; i < 6; i++){
	INCF       _i+0, 1
	BTFSC      STATUS+0, 2
	INCF       _i+1, 1
;Alzheimer.c,34 :: 		}
	GOTO       L_interrupt0
L_interrupt1:
;Alzheimer.c,36 :: 		}
L_end_interrupt:
L__interrupt31:
	MOVF       ___savePCLATH+0, 0
	MOVWF      PCLATH+0
	SWAPF      ___saveSTATUS+0, 0
	MOVWF      STATUS+0
	SWAPF      R15+0, 1
	SWAPF      R15+0, 0
	RETFIE
; end of _interrupt

_main:

;Alzheimer.c,38 :: 		void main() {
;Alzheimer.c,40 :: 		TRISA = 0xFF; //Port A Entrée
	MOVLW      255
	MOVWF      TRISA+0
;Alzheimer.c,41 :: 		OPTION_REG.INTEDG = 1; //Front montant -> Interruption
	BSF        OPTION_REG+0, 6
;Alzheimer.c,42 :: 		INTCON.GIE = 1; //Activer interruption globale
	BSF        INTCON+0, 7
;Alzheimer.c,43 :: 		INTCON.INTE = 1; //Activer INT-RB0
	BSF        INTCON+0, 4
;Alzheimer.c,44 :: 		TRISB1_bit = 1;
	BSF        TRISB1_bit+0, BitPos(TRISB1_bit+0)
;Alzheimer.c,45 :: 		TRISB4_bit = 1;
	BSF        TRISB4_bit+0, BitPos(TRISB4_bit+0)
;Alzheimer.c,46 :: 		TRISB5_bit = 1;
	BSF        TRISB5_bit+0, BitPos(TRISB5_bit+0)
;Alzheimer.c,47 :: 		TRISC = 0; //Configuration port C comme sortie
	CLRF       TRISC+0
;Alzheimer.c,49 :: 		ADC_Init();
	CALL       _ADC_Init+0
;Alzheimer.c,50 :: 		adc = 0;
	CLRF       _adc+0
	CLRF       _adc+1
;Alzheimer.c,51 :: 		aux = 0;
	CLRF       _aux+0
	CLRF       _aux+1
;Alzheimer.c,52 :: 		timer = 0;
	CLRF       _timer+0
	CLRF       _timer+1
;Alzheimer.c,55 :: 		strcpy(med[0], "Ebixa 10mg 2/J");
	MOVLW      _med+0
	MOVWF      FARG_strcpy_to+0
	MOVLW      ?lstr1_Alzheimer+0
	MOVWF      FARG_strcpy_from+0
	CALL       _strcpy+0
;Alzheimer.c,56 :: 		strcpy(med[1], "Aricept 10mg 3/J");
	MOVLW      _med+20
	MOVWF      FARG_strcpy_to+0
	MOVLW      ?lstr2_Alzheimer+0
	MOVWF      FARG_strcpy_from+0
	CALL       _strcpy+0
;Alzheimer.c,57 :: 		for(i = 0; i < 14; i++){
	CLRF       _i+0
	CLRF       _i+1
L_main4:
	MOVLW      128
	XORWF      _i+1, 0
	MOVWF      R0+0
	MOVLW      128
	SUBWF      R0+0, 0
	BTFSS      STATUS+0, 2
	GOTO       L__main34
	MOVLW      14
	SUBWF      _i+0, 0
L__main34:
	BTFSC      STATUS+0, 0
	GOTO       L_main5
;Alzheimer.c,58 :: 		EEPROM_Write(0x02 + i, med[0][i]);
	MOVF       _i+0, 0
	ADDLW      2
	MOVWF      FARG_EEPROM_Write_Address+0
	MOVF       _i+0, 0
	ADDLW      _med+0
	MOVWF      FSR
	MOVF       INDF+0, 0
	MOVWF      FARG_EEPROM_Write_data_+0
	CALL       _EEPROM_Write+0
;Alzheimer.c,59 :: 		aux = 0x02 + i;
	MOVF       _i+0, 0
	ADDLW      2
	MOVWF      _aux+0
	MOVLW      0
	BTFSC      STATUS+0, 0
	ADDLW      1
	ADDWF      _i+1, 0
	MOVWF      _aux+1
;Alzheimer.c,57 :: 		for(i = 0; i < 14; i++){
	INCF       _i+0, 1
	BTFSC      STATUS+0, 2
	INCF       _i+1, 1
;Alzheimer.c,60 :: 		}
	GOTO       L_main4
L_main5:
;Alzheimer.c,61 :: 		for(i = 0; i < 16; i++){
	CLRF       _i+0
	CLRF       _i+1
L_main7:
	MOVLW      128
	XORWF      _i+1, 0
	MOVWF      R0+0
	MOVLW      128
	SUBWF      R0+0, 0
	BTFSS      STATUS+0, 2
	GOTO       L__main35
	MOVLW      16
	SUBWF      _i+0, 0
L__main35:
	BTFSC      STATUS+0, 0
	GOTO       L_main8
;Alzheimer.c,62 :: 		EEPROM_Write(aux + i + 1, med[1][i]);
	MOVF       _i+0, 0
	ADDWF      _aux+0, 0
	MOVWF      FARG_EEPROM_Write_Address+0
	INCF       FARG_EEPROM_Write_Address+0, 1
	MOVF       _i+0, 0
	ADDLW      _med+20
	MOVWF      FSR
	MOVF       INDF+0, 0
	MOVWF      FARG_EEPROM_Write_data_+0
	CALL       _EEPROM_Write+0
;Alzheimer.c,61 :: 		for(i = 0; i < 16; i++){
	INCF       _i+0, 1
	BTFSC      STATUS+0, 2
	INCF       _i+1, 1
;Alzheimer.c,63 :: 		}
	GOTO       L_main7
L_main8:
;Alzheimer.c,64 :: 		aux = 0;
	CLRF       _aux+0
	CLRF       _aux+1
;Alzheimer.c,66 :: 		PORTC.RC0 = 0x00;
	BCF        PORTC+0, 0
;Alzheimer.c,68 :: 		Lcd_Init();
	CALL       _Lcd_Init+0
;Alzheimer.c,69 :: 		Lcd_Cmd(_LCD_CLEAR);
	MOVLW      1
	MOVWF      FARG_Lcd_Cmd_out_char+0
	CALL       _Lcd_Cmd+0
;Alzheimer.c,70 :: 		Lcd_Cmd(_LCD_CURSOR_OFF);
	MOVLW      12
	MOVWF      FARG_Lcd_Cmd_out_char+0
	CALL       _Lcd_Cmd+0
;Alzheimer.c,71 :: 		while(1){
L_main10:
;Alzheimer.c,72 :: 		adc = (ADC_Read(0) / 2) - 1;
	CLRF       FARG_ADC_Read_channel+0
	CALL       _ADC_Read+0
	MOVF       R0+0, 0
	MOVWF      R2+0
	MOVF       R0+1, 0
	MOVWF      R2+1
	RRF        R2+1, 1
	RRF        R2+0, 1
	BCF        R2+1, 7
	MOVLW      1
	SUBWF      R2+0, 0
	MOVWF      R0+0
	MOVLW      0
	BTFSS      STATUS+0, 0
	ADDLW      1
	SUBWF      R2+1, 0
	MOVWF      R0+1
	MOVF       R0+0, 0
	MOVWF      _adc+0
	MOVF       R0+1, 0
	MOVWF      _adc+1
;Alzheimer.c,73 :: 		PORTC.RC0 = 0x00;
	BCF        PORTC+0, 0
;Alzheimer.c,74 :: 		ByteToStr(adc, str);
	MOVF       R0+0, 0
	MOVWF      FARG_ByteToStr_input+0
	MOVLW      _str+0
	MOVWF      FARG_ByteToStr_output+0
	CALL       _ByteToStr+0
;Alzheimer.c,75 :: 		if(PORTB.B1 == !aux){
	MOVF       _aux+0, 0
	IORWF      _aux+1, 0
	MOVLW      1
	BTFSS      STATUS+0, 2
	MOVLW      0
	MOVWF      R2+0
	CLRF       R1+0
	BTFSC      PORTB+0, 1
	INCF       R1+0, 1
	MOVF       R1+0, 0
	XORWF      R2+0, 0
	BTFSS      STATUS+0, 2
	GOTO       L_main12
;Alzheimer.c,76 :: 		Lcd_Cmd(_LCD_CLEAR);
	MOVLW      1
	MOVWF      FARG_Lcd_Cmd_out_char+0
	CALL       _Lcd_Cmd+0
;Alzheimer.c,77 :: 		aux = PORTB.B1;
	MOVLW      0
	BTFSC      PORTB+0, 1
	MOVLW      1
	MOVWF      _aux+0
	CLRF       _aux+1
;Alzheimer.c,78 :: 		if((timer != 3)&&(timer != 8)){
	MOVLW      0
	XORWF      _timer+1, 0
	BTFSS      STATUS+0, 2
	GOTO       L__main36
	MOVLW      3
	XORWF      _timer+0, 0
L__main36:
	BTFSC      STATUS+0, 2
	GOTO       L_main15
	MOVLW      0
	XORWF      _timer+1, 0
	BTFSS      STATUS+0, 2
	GOTO       L__main37
	MOVLW      8
	XORWF      _timer+0, 0
L__main37:
	BTFSC      STATUS+0, 2
	GOTO       L_main15
L__main29:
;Alzheimer.c,79 :: 		Lcd_Out(1, 1, "Ghassen");
	MOVLW      1
	MOVWF      FARG_Lcd_Out_row+0
	MOVLW      1
	MOVWF      FARG_Lcd_Out_column+0
	MOVLW      ?lstr3_Alzheimer+0
	MOVWF      FARG_Lcd_Out_text+0
	CALL       _Lcd_Out+0
;Alzheimer.c,80 :: 		Lcd_Out(2, 1, "Have a good time.");
	MOVLW      2
	MOVWF      FARG_Lcd_Out_row+0
	MOVLW      1
	MOVWF      FARG_Lcd_Out_column+0
	MOVLW      ?lstr4_Alzheimer+0
	MOVWF      FARG_Lcd_Out_text+0
	CALL       _Lcd_Out+0
;Alzheimer.c,81 :: 		}
L_main15:
;Alzheimer.c,82 :: 		if(timer == 3){
	MOVLW      0
	XORWF      _timer+1, 0
	BTFSS      STATUS+0, 2
	GOTO       L__main38
	MOVLW      3
	XORWF      _timer+0, 0
L__main38:
	BTFSS      STATUS+0, 2
	GOTO       L_main16
;Alzheimer.c,83 :: 		Lcd_Out(1, 1, "Temperature");
	MOVLW      1
	MOVWF      FARG_Lcd_Out_row+0
	MOVLW      1
	MOVWF      FARG_Lcd_Out_column+0
	MOVLW      ?lstr5_Alzheimer+0
	MOVWF      FARG_Lcd_Out_text+0
	CALL       _Lcd_Out+0
;Alzheimer.c,84 :: 		Lcd_Out(2, 1, str);
	MOVLW      2
	MOVWF      FARG_Lcd_Out_row+0
	MOVLW      1
	MOVWF      FARG_Lcd_Out_column+0
	MOVLW      _str+0
	MOVWF      FARG_Lcd_Out_text+0
	CALL       _Lcd_Out+0
;Alzheimer.c,85 :: 		}
L_main16:
;Alzheimer.c,86 :: 		if(timer == 8){
	MOVLW      0
	XORWF      _timer+1, 0
	BTFSS      STATUS+0, 2
	GOTO       L__main39
	MOVLW      8
	XORWF      _timer+0, 0
L__main39:
	BTFSS      STATUS+0, 2
	GOTO       L_main17
;Alzheimer.c,87 :: 		for(i = 0; i < 14; i++){
	CLRF       _i+0
	CLRF       _i+1
L_main18:
	MOVLW      128
	XORWF      _i+1, 0
	MOVWF      R0+0
	MOVLW      128
	SUBWF      R0+0, 0
	BTFSS      STATUS+0, 2
	GOTO       L__main40
	MOVLW      14
	SUBWF      _i+0, 0
L__main40:
	BTFSC      STATUS+0, 0
	GOTO       L_main19
;Alzheimer.c,88 :: 		lcdstr[i] = EEPROM_Read(0x02 + i);
	MOVF       _i+0, 0
	ADDLW      _lcdstr+0
	MOVWF      FLOC__main+0
	MOVF       _i+0, 0
	ADDLW      2
	MOVWF      FARG_EEPROM_Read_Address+0
	CALL       _EEPROM_Read+0
	MOVF       FLOC__main+0, 0
	MOVWF      FSR
	MOVF       R0+0, 0
	MOVWF      INDF+0
;Alzheimer.c,89 :: 		aux = 0x02 + i;
	MOVF       _i+0, 0
	ADDLW      2
	MOVWF      _aux+0
	MOVLW      0
	BTFSC      STATUS+0, 0
	ADDLW      1
	ADDWF      _i+1, 0
	MOVWF      _aux+1
;Alzheimer.c,87 :: 		for(i = 0; i < 14; i++){
	INCF       _i+0, 1
	BTFSC      STATUS+0, 2
	INCF       _i+1, 1
;Alzheimer.c,90 :: 		}
	GOTO       L_main18
L_main19:
;Alzheimer.c,91 :: 		Lcd_Out(1, 1, lcdstr);
	MOVLW      1
	MOVWF      FARG_Lcd_Out_row+0
	MOVLW      1
	MOVWF      FARG_Lcd_Out_column+0
	MOVLW      _lcdstr+0
	MOVWF      FARG_Lcd_Out_text+0
	CALL       _Lcd_Out+0
;Alzheimer.c,92 :: 		for(i = 0; i < 16; i++){
	CLRF       _i+0
	CLRF       _i+1
L_main21:
	MOVLW      128
	XORWF      _i+1, 0
	MOVWF      R0+0
	MOVLW      128
	SUBWF      R0+0, 0
	BTFSS      STATUS+0, 2
	GOTO       L__main41
	MOVLW      16
	SUBWF      _i+0, 0
L__main41:
	BTFSC      STATUS+0, 0
	GOTO       L_main22
;Alzheimer.c,93 :: 		lcdstr[i] = EEPROM_Read(aux + i + 1);
	MOVF       _i+0, 0
	ADDLW      _lcdstr+0
	MOVWF      FLOC__main+0
	MOVF       _i+0, 0
	ADDWF      _aux+0, 0
	MOVWF      FARG_EEPROM_Read_Address+0
	INCF       FARG_EEPROM_Read_Address+0, 1
	CALL       _EEPROM_Read+0
	MOVF       FLOC__main+0, 0
	MOVWF      FSR
	MOVF       R0+0, 0
	MOVWF      INDF+0
;Alzheimer.c,92 :: 		for(i = 0; i < 16; i++){
	INCF       _i+0, 1
	BTFSC      STATUS+0, 2
	INCF       _i+1, 1
;Alzheimer.c,94 :: 		}
	GOTO       L_main21
L_main22:
;Alzheimer.c,95 :: 		Lcd_Out(2, 1, lcdstr);
	MOVLW      2
	MOVWF      FARG_Lcd_Out_row+0
	MOVLW      1
	MOVWF      FARG_Lcd_Out_column+0
	MOVLW      _lcdstr+0
	MOVWF      FARG_Lcd_Out_text+0
	CALL       _Lcd_Out+0
;Alzheimer.c,96 :: 		aux = PORTB.B1;
	MOVLW      0
	BTFSC      PORTB+0, 1
	MOVLW      1
	MOVWF      _aux+0
	CLRF       _aux+1
;Alzheimer.c,97 :: 		timer = -1;
	MOVLW      255
	MOVWF      _timer+0
	MOVLW      255
	MOVWF      _timer+1
;Alzheimer.c,98 :: 		}
L_main17:
;Alzheimer.c,99 :: 		timer++;
	INCF       _timer+0, 1
	BTFSC      STATUS+0, 2
	INCF       _timer+1, 1
;Alzheimer.c,100 :: 		}
L_main12:
;Alzheimer.c,101 :: 		if(PORTB.B4 == 0){
	BTFSC      PORTB+0, 4
	GOTO       L_main24
;Alzheimer.c,102 :: 		PORTC.RC3 = 1;
	BSF        PORTC+0, 3
;Alzheimer.c,103 :: 		PORTC.RC4 = 0;
	BCF        PORTC+0, 4
;Alzheimer.c,104 :: 		Delay_ms(2000);
	MOVLW      3
	MOVWF      R11+0
	MOVLW      138
	MOVWF      R12+0
	MOVLW      85
	MOVWF      R13+0
L_main25:
	DECFSZ     R13+0, 1
	GOTO       L_main25
	DECFSZ     R12+0, 1
	GOTO       L_main25
	DECFSZ     R11+0, 1
	GOTO       L_main25
	NOP
	NOP
;Alzheimer.c,105 :: 		PORTC.RC3 = 0;
	BCF        PORTC+0, 3
;Alzheimer.c,106 :: 		}
	GOTO       L_main26
L_main24:
;Alzheimer.c,107 :: 		else if(PORTB.B5 == 0){
	BTFSC      PORTB+0, 5
	GOTO       L_main27
;Alzheimer.c,108 :: 		PORTC.RC3 = 0;
	BCF        PORTC+0, 3
;Alzheimer.c,109 :: 		PORTC.RC4 = 1;
	BSF        PORTC+0, 4
;Alzheimer.c,110 :: 		Delay_ms(2000);
	MOVLW      3
	MOVWF      R11+0
	MOVLW      138
	MOVWF      R12+0
	MOVLW      85
	MOVWF      R13+0
L_main28:
	DECFSZ     R13+0, 1
	GOTO       L_main28
	DECFSZ     R12+0, 1
	GOTO       L_main28
	DECFSZ     R11+0, 1
	GOTO       L_main28
	NOP
	NOP
;Alzheimer.c,111 :: 		PORTC.RC4 = 0;
	BCF        PORTC+0, 4
;Alzheimer.c,112 :: 		}
L_main27:
L_main26:
;Alzheimer.c,113 :: 		}
	GOTO       L_main10
;Alzheimer.c,114 :: 		}
L_end_main:
	GOTO       $+0
; end of _main
